target datalayout = "e-m:e-p270:32:32-p271:32:32-p272:64:64-i64:64-i128:128-f80:128-n8:16:32:64-S128"
target triple = "x86_64-pc-linux-gnu"

%"class.std::unique_ptr.2" = type { %"struct.std::__uniq_ptr_data.3" }
%"struct.std::__uniq_ptr_data.3" = type { %"class.std::__uniq_ptr_impl.4" }
%"class.std::__uniq_ptr_impl.4" = type { %"class.std::tuple.5" }
%"class.std::tuple.5" = type { %"struct.std::_Tuple_impl.6" }
%"struct.std::_Tuple_impl.6" = type { %"struct.std::_Head_base.9" }
%"struct.std::_Head_base.9" = type { ptr }
%"class.std::unique_ptr.10" = type { %"struct.std::__uniq_ptr_data.11" }
%"struct.std::__uniq_ptr_data.11" = type { %"class.std::__uniq_ptr_impl.12" }
%"class.std::__uniq_ptr_impl.12" = type { %"class.std::tuple.13" }
%"class.std::tuple.13" = type { %"struct.std::_Tuple_impl.14" }
%"struct.std::_Tuple_impl.14" = type { %"struct.std::_Head_base.17" }
%"struct.std::_Head_base.17" = type { ptr }
%"class.std::vector" = type { %"struct.std::_Vector_base" }
%"struct.std::_Vector_base" = type { %"struct.std::_Vector_base<unsigned char, std::allocator<unsigned char>>::_Vector_impl" }
%"struct.std::_Vector_base<unsigned char, std::allocator<unsigned char>>::_Vector_impl" = type { %"struct.std::_Vector_base<unsigned char, std::allocator<unsigned char>>::_Vector_impl_data" }
%"struct.std::_Vector_base<unsigned char, std::allocator<unsigned char>>::_Vector_impl_data" = type { ptr, ptr, ptr }
%struct.TestState = type <{ ptr, %struct.timeval, %struct.timeval, %"class.std::unique_ptr.10", i8, [7 x i8], %"class.std::unique_ptr.2", %"class.std::unique_ptr.2", i8, i8, [6 x i8], %"class.std::unique_ptr.10", %"class.std::vector", i32, i8, [3 x i8] }>
%struct.timeval = type { i64, i64 }

@_ZL13g_state_index = internal global i32 0, align 4

; Function Attrs: mustprogress uwtable
define internal noundef ptr @_ZL12GetTestStatePK6ssl_st(ptr noundef %0) #6 {
  %2 = alloca ptr, align 8
  store ptr %0, ptr %2, align 8, !tbaa !204
  %3 = load ptr, ptr %2, align 8, !tbaa !204
  %4 = load i32, ptr @_ZL13g_state_index, align 4, !tbaa !6
  %5 = call ptr @SSL_get_ex_data(ptr noundef %3, i32 noundef %4)
  ret ptr %5
}

; Function Attrs: mustprogress uwtable
define internal noundef i32 @_ZL12CertCallbackP6ssl_stPv(ptr noundef %0, ptr noundef %1) #6 {
  %3 = alloca i32, align 4
  %4 = alloca ptr, align 8
  %5 = alloca ptr, align 8
  store ptr %0, ptr %4, align 8, !tbaa !204
  store ptr %1, ptr %5, align 8, !tbaa !25
  %6 = load ptr, ptr %4, align 8, !tbaa !204
  %7 = call noundef ptr @_ZL12GetTestStatePK6ssl_st(ptr noundef %6)
  %8 = getelementptr inbounds nuw %struct.TestState, ptr %7, i32 0, i32 4
  %9 = load i8, ptr %8, align 8, !tbaa !215, !range !23, !noundef !24
  %10 = trunc i8 %9 to i1
  br i1 %10, label %12, label %11

11:                                               ; preds = %2
  store i32 -1, ptr %3, align 4
  br label %17

12:                                               ; preds = %2
  %13 = load ptr, ptr %4, align 8, !tbaa !204
  %14 = call noundef zeroext i1 @_ZL18InstallCertificateP6ssl_st(ptr noundef %13)
  br i1 %14, label %16, label %15

15:                                               ; preds = %12
  store i32 0, ptr %3, align 4
  br label %17

16:                                               ; preds = %12
  store i32 1, ptr %3, align 4
  br label %17

17:                                               ; preds = %16, %15, %11
  %18 = load i32, ptr %3, align 4
  ret i32 %18
}