; Function Attrs: mustprogress uwtable
define internal noundef range(i32 -1, 2) i32 @_ZL12CertCallbackP6ssl_stPv(ptr noundef %0, ptr readnone captures(none) %1) #10 {
  %3 = load i32, ptr @_ZL13g_state_index, align 4, !tbaa !6
  %4 = tail call noundef ptr @SSL_get_ex_data(ptr noundef %0, i32 noundef %3)
  %5 = getelementptr inbounds nuw i8, ptr %4, i64 48
  %6 = load i8, ptr %5, align 8, !tbaa !155, !range !39, !noundef !40
  %7 = trunc nuw i8 %6 to i1
  br i1 %7, label %8, label %10

8:                                                ; preds = %2
  %9 = tail call fastcc noundef zeroext i1 @_ZL18InstallCertificateP6ssl_st(ptr noundef %0)
  %. = zext i1 %9 to i32
  br label %10

10:                                               ; preds = %8, %2
  %.0 = phi i32 [ -1, %2 ], [ %., %8 ]
  ret i32 %.0
}